target datalayout = "e-m:e-p270:32:32-p271:32:32-p272:64:64-i64:64-i128:128-f80:128-n8:16:32:64-S128"
target triple = "x86_64-pc-linux-gnu"

@l_Std_Time_Weekday_instInhabitedOrdinal___closed__9 = internal global ptr null, align 8
@l_Std_Time_Weekday_toOrdinal___closed__5 = internal global ptr null, align 8
@l_Std_Time_Weekday_toOrdinal___closed__11 = internal global ptr null, align 8
@l_Std_Time_Weekday_toOrdinal___closed__17 = internal global ptr null, align 8
@l_Std_Time_Weekday_toOrdinal___closed__23 = internal global ptr null, align 8
@l_Std_Time_Weekday_toOrdinal___closed__28 = internal global ptr null, align 8
@l_Std_Time_Weekday_toOrdinal___closed__34 = internal global ptr null, align 8

; Function Attrs: nounwind uwtable
define ptr @l_Std_Time_Weekday_toOrdinal(i8 noundef zeroext %0) #2 {
  %2 = alloca ptr, align 8
  %3 = alloca i8, align 1
  %4 = alloca ptr, align 8
  %5 = alloca ptr, align 8
  %6 = alloca ptr, align 8
  %7 = alloca ptr, align 8
  %8 = alloca ptr, align 8
  %9 = alloca ptr, align 8
  %10 = alloca ptr, align 8
  store i8 %0, ptr %3, align 1, !tbaa !10
  br label %11

11:                                               ; preds = %1
  %12 = load i8, ptr %3, align 1, !tbaa !10
  %13 = zext i8 %12 to i32
  switch i32 %13, label %32 [
    i32 0, label %14
    i32 1, label %17
    i32 2, label %20
    i32 3, label %23
    i32 4, label %26
    i32 5, label %29
  ]

14:                                               ; preds = %11
  call void @llvm.lifetime.start.p0(i64 8, ptr %4) #7
  %15 = load ptr, ptr @l_Std_Time_Weekday_instInhabitedOrdinal___closed__9, align 8, !tbaa !4
  store ptr %15, ptr %4, align 8, !tbaa !4
  %16 = load ptr, ptr %4, align 8, !tbaa !4
  store ptr %16, ptr %2, align 8
  call void @llvm.lifetime.end.p0(i64 8, ptr %4) #7
  br label %35

17:                                               ; preds = %11
  call void @llvm.lifetime.start.p0(i64 8, ptr %5) #7
  %18 = load ptr, ptr @l_Std_Time_Weekday_toOrdinal___closed__5, align 8, !tbaa !4
  store ptr %18, ptr %5, align 8, !tbaa !4
  %19 = load ptr, ptr %5, align 8, !tbaa !4
  store ptr %19, ptr %2, align 8
  call void @llvm.lifetime.end.p0(i64 8, ptr %5) #7
  br label %35

20:                                               ; preds = %11
  call void @llvm.lifetime.start.p0(i64 8, ptr %6) #7
  %21 = load ptr, ptr @l_Std_Time_Weekday_toOrdinal___closed__11, align 8, !tbaa !4
  store ptr %21, ptr %6, align 8, !tbaa !4
  %22 = load ptr, ptr %6, align 8, !tbaa !4
  store ptr %22, ptr %2, align 8
  call void @llvm.lifetime.end.p0(i64 8, ptr %6) #7
  br label %35

23:                                               ; preds = %11
  call void @llvm.lifetime.start.p0(i64 8, ptr %7) #7
  %24 = load ptr, ptr @l_Std_Time_Weekday_toOrdinal___closed__17, align 8, !tbaa !4
  store ptr %24, ptr %7, align 8, !tbaa !4
  %25 = load ptr, ptr %7, align 8, !tbaa !4
  store ptr %25, ptr %2, align 8
  call void @llvm.lifetime.end.p0(i64 8, ptr %7) #7
  br label %35

26:                                               ; preds = %11
  call void @llvm.lifetime.start.p0(i64 8, ptr %8) #7
  %27 = load ptr, ptr @l_Std_Time_Weekday_toOrdinal___closed__23, align 8, !tbaa !4
  store ptr %27, ptr %8, align 8, !tbaa !4
  %28 = load ptr, ptr %8, align 8, !tbaa !4
  store ptr %28, ptr %2, align 8
  call void @llvm.lifetime.end.p0(i64 8, ptr %8) #7
  br label %35

29:                                               ; preds = %11
  call void @llvm.lifetime.start.p0(i64 8, ptr %9) #7
  %30 = load ptr, ptr @l_Std_Time_Weekday_toOrdinal___closed__28, align 8, !tbaa !4
  store ptr %30, ptr %9, align 8, !tbaa !4
  %31 = load ptr, ptr %9, align 8, !tbaa !4
  store ptr %31, ptr %2, align 8
  call void @llvm.lifetime.end.p0(i64 8, ptr %9) #7
  br label %35

32:                                               ; preds = %11
  call void @llvm.lifetime.start.p0(i64 8, ptr %10) #7
  %33 = load ptr, ptr @l_Std_Time_Weekday_toOrdinal___closed__34, align 8, !tbaa !4
  store ptr %33, ptr %10, align 8, !tbaa !4
  %34 = load ptr, ptr %10, align 8, !tbaa !4
  store ptr %34, ptr %2, align 8
  call void @llvm.lifetime.end.p0(i64 8, ptr %10) #7
  br label %35

35:                                               ; preds = %32, %29, %26, %23, %20, %17, %14
  %36 = load ptr, ptr %2, align 8
  ret ptr %36
}